target datalayout = "e-m:e-p270:32:32-p271:32:32-p272:64:64-i64:64-i128:128-f80:128-n8:16:32:64-S128"
target triple = "x86_64-pc-linux-gnu"

%struct._address = type { i32, i32, ptr, ptr }
%struct._packet_info = type { ptr, ptr, i32, i32, %struct.nstime_t, %struct.nstime_t, %struct.nstime_t, i8, ptr, ptr, ptr, ptr, %struct._address, %struct._address, %struct._address, %struct._address, %struct._address, %struct._address, i32, ptr, i8, [3 x i8], %struct.anon, i32, i32, i32, i32, ptr, i8, ptr, ptr, i16, i16, i32, i32, i16, i32, i32, ptr, ptr, ptr, i8, i8, i16, i16, i16, i32, i16, i16, ptr, ptr, ptr, ptr, ptr, i32, i32 }
%struct.nstime_t = type { i64, i32 }
%struct.anon = type { i8, [3 x i8] }

@.str.17 = private unnamed_addr constant [31 x i8] c"[wrong length for IPX network]\00", align 1
@.str.18 = private unnamed_addr constant [7 x i8] c"0x%08X\00", align 1
@hf_radius_framed_ipx_network = internal global i32 0, align 4
@.str.306 = private unnamed_addr constant [13 x i8] c"NAS-selected\00", align 1
@.str.307 = private unnamed_addr constant [23 x i8] c"Framed-IPX-Network: %s\00", align 1

; Function Attrs: null_pointer_is_valid sspstrong uwtable
define internal ptr @dissect_framed_ipx_network(ptr noundef %0, ptr noundef %1, ptr noundef %2) #0 {
  %4 = alloca ptr, align 8
  %5 = alloca ptr, align 8
  %6 = alloca ptr, align 8
  %7 = alloca ptr, align 8
  %8 = alloca i32, align 4
  %9 = alloca i32, align 4
  %10 = alloca ptr, align 8
  %11 = alloca i32, align 4
  store ptr %0, ptr %5, align 8
  store ptr %1, ptr %6, align 8
  store ptr %2, ptr %7, align 8
  call void @llvm.lifetime.start.p0(i64 4, ptr %8) #17
  call void @llvm.lifetime.start.p0(i64 4, ptr %9) #17
  call void @llvm.lifetime.start.p0(i64 8, ptr %10) #17
  %12 = load ptr, ptr %6, align 8
  %13 = call i32 @tvb_reported_length(ptr noundef %12)
  store i32 %13, ptr %8, align 4
  %14 = load i32, ptr %8, align 4
  %15 = icmp ne i32 %14, 4
  br i1 %15, label %16, label %17

16:                                               ; preds = %3
  store ptr @.str.17, ptr %4, align 8
  store i32 1, ptr %11, align 4
  br label %38

17:                                               ; preds = %3
  %18 = load ptr, ptr %6, align 8
  %19 = call i32 @tvb_get_ntohl(ptr noundef %18, i32 noundef 0)
  store i32 %19, ptr %9, align 4
  %20 = load i32, ptr %9, align 4
  %21 = icmp eq i32 %20, -2
  br i1 %21, label %22, label %23

22:                                               ; preds = %17
  store ptr @.str.306, ptr %10, align 8
  br label %29

23:                                               ; preds = %17
  %24 = load ptr, ptr %7, align 8
  %25 = getelementptr inbounds nuw %struct._packet_info, ptr %24, i32 0, i32 51
  %26 = load ptr, ptr %25, align 8
  %27 = load i32, ptr %9, align 4
  %28 = call noalias ptr (ptr, ptr, ...) @wmem_strdup_printf(ptr noundef %26, ptr noundef @.str.18, i32 noundef %27)
  store ptr %28, ptr %10, align 8
  br label %29

29:                                               ; preds = %23, %22
  %30 = load ptr, ptr %5, align 8
  %31 = load i32, ptr @hf_radius_framed_ipx_network, align 4
  %32 = load ptr, ptr %6, align 8
  %33 = load i32, ptr %8, align 4
  %34 = load i32, ptr %9, align 4
  %35 = load ptr, ptr %10, align 8
  %36 = call ptr (ptr, i32, ptr, i32, i32, i32, ptr, ...) @proto_tree_add_ipxnet_format_value(ptr noundef %30, i32 noundef %31, ptr noundef %32, i32 noundef 0, i32 noundef %33, i32 noundef %34, ptr noundef @.str.307, ptr noundef %35)
  %37 = load ptr, ptr %10, align 8
  store ptr %37, ptr %4, align 8
  store i32 1, ptr %11, align 4
  br label %38

38:                                               ; preds = %29, %16
  call void @llvm.lifetime.end.p0(i64 8, ptr %10) #17
  call void @llvm.lifetime.end.p0(i64 4, ptr %9) #17
  call void @llvm.lifetime.end.p0(i64 4, ptr %8) #17
  %39 = load ptr, ptr %4, align 8
  ret ptr %39
}