; Function Attrs: null_pointer_is_valid sspstrong uwtable
define internal noundef ptr @dissect_framed_ipx_network(ptr noundef %0, ptr noundef %1, ptr noundef readonly captures(none) %2) #0 {
  %4 = tail call i32 @tvb_reported_length(ptr noundef %1)
  %.not = icmp eq i32 %4, 4
  br i1 %.not, label %5, label %15

5:                                                ; preds = %3
  %6 = tail call i32 @tvb_get_ntohl(ptr noundef %1, i32 noundef 0)
  %7 = icmp eq i32 %6, -2
  br i1 %7, label %12, label %8

8:                                                ; preds = %5
  %9 = getelementptr inbounds nuw i8, ptr %2, i64 408
  %10 = load ptr, ptr %9, align 8
  %11 = tail call noalias ptr (ptr, ptr, ...) @wmem_strdup_printf(ptr noundef %10, ptr noundef nonnull @.str.18, i32 noundef %6)
  br label %12

12:                                               ; preds = %5, %8
  %.0 = phi ptr [ %11, %8 ], [ @.str.306, %5 ]
  %13 = load i32, ptr @hf_radius_framed_ipx_network, align 4
  %14 = tail call ptr (ptr, i32, ptr, i32, i32, i32, ptr, ...) @proto_tree_add_ipxnet_format_value(ptr noundef %0, i32 noundef %13, ptr noundef %1, i32 noundef 0, i32 noundef 4, i32 noundef %6, ptr noundef nonnull @.str.307, ptr noundef %.0)
  br label %15

15:                                               ; preds = %3, %12
  %.012 = phi ptr [ %.0, %12 ], [ @.str.17, %3 ]
  ret ptr %.012
}